target datalayout = "e-m:e-p270:32:32-p271:32:32-p272:64:64-i64:64-i128:128-f80:128-n8:16:32:64-S128"
target triple = "x86_64-pc-linux-gnu"

%struct.SSL_TEST_EXTRA_CONF = type { %struct.SSL_TEST_CLIENT_CONF, %struct.SSL_TEST_SERVER_CONF, %struct.SSL_TEST_SERVER_CONF }
%struct.SSL_TEST_CLIENT_CONF = type { i32, i32, i32, ptr, ptr, i32, ptr, ptr, ptr, i32, i32 }
%struct.SSL_TEST_SERVER_CONF = type { i32, ptr, ptr, i32, i32, ptr, ptr, i32, ptr }

@.str = private unnamed_addr constant [39 x i8] c"../openssl/test/helpers/ssl_test_ctx.c\00", align 1

; Function Attrs: nounwind uwtable
define internal void @ssl_test_extra_conf_free_data(ptr noundef %0) #0 {
  %2 = alloca ptr, align 8
  store ptr %0, ptr %2, align 8, !tbaa !8
  %3 = load ptr, ptr %2, align 8, !tbaa !8
  %4 = getelementptr inbounds nuw %struct.SSL_TEST_EXTRA_CONF, ptr %3, i32 0, i32 0
  %5 = getelementptr inbounds nuw %struct.SSL_TEST_CLIENT_CONF, ptr %4, i32 0, i32 3
  %6 = load ptr, ptr %5, align 8, !tbaa !53
  call void @CRYPTO_free(ptr noundef %6, ptr noundef @.str, i32 noundef 754)
  %7 = load ptr, ptr %2, align 8, !tbaa !8
  %8 = getelementptr inbounds nuw %struct.SSL_TEST_EXTRA_CONF, ptr %7, i32 0, i32 1
  %9 = getelementptr inbounds nuw %struct.SSL_TEST_SERVER_CONF, ptr %8, i32 0, i32 1
  %10 = load ptr, ptr %9, align 8, !tbaa !54
  call void @CRYPTO_free(ptr noundef %10, ptr noundef @.str, i32 noundef 755)
  %11 = load ptr, ptr %2, align 8, !tbaa !8
  %12 = getelementptr inbounds nuw %struct.SSL_TEST_EXTRA_CONF, ptr %11, i32 0, i32 2
  %13 = getelementptr inbounds nuw %struct.SSL_TEST_SERVER_CONF, ptr %12, i32 0, i32 1
  %14 = load ptr, ptr %13, align 8, !tbaa !55
  call void @CRYPTO_free(ptr noundef %14, ptr noundef @.str, i32 noundef 756)
  %15 = load ptr, ptr %2, align 8, !tbaa !8
  %16 = getelementptr inbounds nuw %struct.SSL_TEST_EXTRA_CONF, ptr %15, i32 0, i32 0
  %17 = getelementptr inbounds nuw %struct.SSL_TEST_CLIENT_CONF, ptr %16, i32 0, i32 4
  %18 = load ptr, ptr %17, align 8, !tbaa !56
  call void @CRYPTO_free(ptr noundef %18, ptr noundef @.str, i32 noundef 757)
  %19 = load ptr, ptr %2, align 8, !tbaa !8
  %20 = getelementptr inbounds nuw %struct.SSL_TEST_EXTRA_CONF, ptr %19, i32 0, i32 1
  %21 = getelementptr inbounds nuw %struct.SSL_TEST_SERVER_CONF, ptr %20, i32 0, i32 2
  %22 = load ptr, ptr %21, align 8, !tbaa !57
  call void @CRYPTO_free(ptr noundef %22, ptr noundef @.str, i32 noundef 758)
  %23 = load ptr, ptr %2, align 8, !tbaa !8
  %24 = getelementptr inbounds nuw %struct.SSL_TEST_EXTRA_CONF, ptr %23, i32 0, i32 2
  %25 = getelementptr inbounds nuw %struct.SSL_TEST_SERVER_CONF, ptr %24, i32 0, i32 2
  %26 = load ptr, ptr %25, align 8, !tbaa !58
  call void @CRYPTO_free(ptr noundef %26, ptr noundef @.str, i32 noundef 759)
  %27 = load ptr, ptr %2, align 8, !tbaa !8
  %28 = getelementptr inbounds nuw %struct.SSL_TEST_EXTRA_CONF, ptr %27, i32 0, i32 0
  %29 = getelementptr inbounds nuw %struct.SSL_TEST_CLIENT_CONF, ptr %28, i32 0, i32 6
  %30 = load ptr, ptr %29, align 8, !tbaa !59
  call void @CRYPTO_free(ptr noundef %30, ptr noundef @.str, i32 noundef 760)
  %31 = load ptr, ptr %2, align 8, !tbaa !8
  %32 = getelementptr inbounds nuw %struct.SSL_TEST_EXTRA_CONF, ptr %31, i32 0, i32 1
  %33 = getelementptr inbounds nuw %struct.SSL_TEST_SERVER_CONF, ptr %32, i32 0, i32 5
  %34 = load ptr, ptr %33, align 8, !tbaa !60
  call void @CRYPTO_free(ptr noundef %34, ptr noundef @.str, i32 noundef 761)
  %35 = load ptr, ptr %2, align 8, !tbaa !8
  %36 = getelementptr inbounds nuw %struct.SSL_TEST_EXTRA_CONF, ptr %35, i32 0, i32 1
  %37 = getelementptr inbounds nuw %struct.SSL_TEST_SERVER_CONF, ptr %36, i32 0, i32 6
  %38 = load ptr, ptr %37, align 8, !tbaa !61
  call void @CRYPTO_free(ptr noundef %38, ptr noundef @.str, i32 noundef 762)
  %39 = load ptr, ptr %2, align 8, !tbaa !8
  %40 = getelementptr inbounds nuw %struct.SSL_TEST_EXTRA_CONF, ptr %39, i32 0, i32 2
  %41 = getelementptr inbounds nuw %struct.SSL_TEST_SERVER_CONF, ptr %40, i32 0, i32 5
  %42 = load ptr, ptr %41, align 8, !tbaa !62
  call void @CRYPTO_free(ptr noundef %42, ptr noundef @.str, i32 noundef 763)
  %43 = load ptr, ptr %2, align 8, !tbaa !8
  %44 = getelementptr inbounds nuw %struct.SSL_TEST_EXTRA_CONF, ptr %43, i32 0, i32 2
  %45 = getelementptr inbounds nuw %struct.SSL_TEST_SERVER_CONF, ptr %44, i32 0, i32 6
  %46 = load ptr, ptr %45, align 8, !tbaa !63
  call void @CRYPTO_free(ptr noundef %46, ptr noundef @.str, i32 noundef 764)
  %47 = load ptr, ptr %2, align 8, !tbaa !8
  %48 = getelementptr inbounds nuw %struct.SSL_TEST_EXTRA_CONF, ptr %47, i32 0, i32 0
  %49 = getelementptr inbounds nuw %struct.SSL_TEST_CLIENT_CONF, ptr %48, i32 0, i32 7
  %50 = load ptr, ptr %49, align 8, !tbaa !64
  call void @CRYPTO_free(ptr noundef %50, ptr noundef @.str, i32 noundef 765)
  %51 = load ptr, ptr %2, align 8, !tbaa !8
  %52 = getelementptr inbounds nuw %struct.SSL_TEST_EXTRA_CONF, ptr %51, i32 0, i32 0
  %53 = getelementptr inbounds nuw %struct.SSL_TEST_CLIENT_CONF, ptr %52, i32 0, i32 8
  %54 = load ptr, ptr %53, align 8, !tbaa !65
  call void @CRYPTO_free(ptr noundef %54, ptr noundef @.str, i32 noundef 766)
  %55 = load ptr, ptr %2, align 8, !tbaa !8
  %56 = getelementptr inbounds nuw %struct.SSL_TEST_EXTRA_CONF, ptr %55, i32 0, i32 1
  %57 = getelementptr inbounds nuw %struct.SSL_TEST_SERVER_CONF, ptr %56, i32 0, i32 8
  %58 = load ptr, ptr %57, align 8, !tbaa !66
  call void @CRYPTO_free(ptr noundef %58, ptr noundef @.str, i32 noundef 767)
  %59 = load ptr, ptr %2, align 8, !tbaa !8
  %60 = getelementptr inbounds nuw %struct.SSL_TEST_EXTRA_CONF, ptr %59, i32 0, i32 2
  %61 = getelementptr inbounds nuw %struct.SSL_TEST_SERVER_CONF, ptr %60, i32 0, i32 8
  %62 = load ptr, ptr %61, align 8, !tbaa !67
  call void @CRYPTO_free(ptr noundef %62, ptr noundef @.str, i32 noundef 768)
  ret void
}