; Function Attrs: nounwind uwtable
define internal fastcc void @ssl_test_extra_conf_free_data(ptr noundef nonnull readonly captures(none) %0) unnamed_addr #1 {
  %2 = getelementptr inbounds nuw i8, ptr %0, i64 16
  %3 = load ptr, ptr %2, align 8, !tbaa !42
  tail call void @CRYPTO_free(ptr noundef %3, ptr noundef nonnull @.str, i32 noundef 754) #8
  %4 = getelementptr inbounds nuw i8, ptr %0, i64 80
  %5 = load ptr, ptr %4, align 8, !tbaa !43
  tail call void @CRYPTO_free(ptr noundef %5, ptr noundef nonnull @.str, i32 noundef 755) #8
  %6 = getelementptr inbounds nuw i8, ptr %0, i64 144
  %7 = load ptr, ptr %6, align 8, !tbaa !44
  tail call void @CRYPTO_free(ptr noundef %7, ptr noundef nonnull @.str, i32 noundef 756) #8
  %8 = getelementptr inbounds nuw i8, ptr %0, i64 24
  %9 = load ptr, ptr %8, align 8, !tbaa !45
  tail call void @CRYPTO_free(ptr noundef %9, ptr noundef nonnull @.str, i32 noundef 757) #8
  %10 = getelementptr inbounds nuw i8, ptr %0, i64 88
  %11 = load ptr, ptr %10, align 8, !tbaa !46
  tail call void @CRYPTO_free(ptr noundef %11, ptr noundef nonnull @.str, i32 noundef 758) #8
  %12 = getelementptr inbounds nuw i8, ptr %0, i64 152
  %13 = load ptr, ptr %12, align 8, !tbaa !47
  tail call void @CRYPTO_free(ptr noundef %13, ptr noundef nonnull @.str, i32 noundef 759) #8
  %14 = getelementptr inbounds nuw i8, ptr %0, i64 40
  %15 = load ptr, ptr %14, align 8, !tbaa !48
  tail call void @CRYPTO_free(ptr noundef %15, ptr noundef nonnull @.str, i32 noundef 760) #8
  %16 = getelementptr inbounds nuw i8, ptr %0, i64 104
  %17 = load ptr, ptr %16, align 8, !tbaa !49
  tail call void @CRYPTO_free(ptr noundef %17, ptr noundef nonnull @.str, i32 noundef 761) #8
  %18 = getelementptr inbounds nuw i8, ptr %0, i64 112
  %19 = load ptr, ptr %18, align 8, !tbaa !50
  tail call void @CRYPTO_free(ptr noundef %19, ptr noundef nonnull @.str, i32 noundef 762) #8
  %20 = getelementptr inbounds nuw i8, ptr %0, i64 168
  %21 = load ptr, ptr %20, align 8, !tbaa !51
  tail call void @CRYPTO_free(ptr noundef %21, ptr noundef nonnull @.str, i32 noundef 763) #8
  %22 = getelementptr inbounds nuw i8, ptr %0, i64 176
  %23 = load ptr, ptr %22, align 8, !tbaa !52
  tail call void @CRYPTO_free(ptr noundef %23, ptr noundef nonnull @.str, i32 noundef 764) #8
  %24 = getelementptr inbounds nuw i8, ptr %0, i64 48
  %25 = load ptr, ptr %24, align 8, !tbaa !53
  tail call void @CRYPTO_free(ptr noundef %25, ptr noundef nonnull @.str, i32 noundef 765) #8
  %26 = getelementptr inbounds nuw i8, ptr %0, i64 56
  %27 = load ptr, ptr %26, align 8, !tbaa !54
  tail call void @CRYPTO_free(ptr noundef %27, ptr noundef nonnull @.str, i32 noundef 766) #8
  %28 = getelementptr inbounds nuw i8, ptr %0, i64 128
  %29 = load ptr, ptr %28, align 8, !tbaa !55
  tail call void @CRYPTO_free(ptr noundef %29, ptr noundef nonnull @.str, i32 noundef 767) #8
  %30 = getelementptr inbounds nuw i8, ptr %0, i64 192
  %31 = load ptr, ptr %30, align 8, !tbaa !56
  tail call void @CRYPTO_free(ptr noundef %31, ptr noundef nonnull @.str, i32 noundef 768) #8
  ret void
}